target datalayout = "e-m:e-p270:32:32-p271:32:32-p272:64:64-i64:64-i128:128-f80:128-n8:16:32:64-S128"
target triple = "x86_64-pc-linux-gnu"

%struct.rb_iseq_struct = type { i64, i64, ptr, %union.anon.13 }
%union.anon.13 = type { %struct.anon.14 }
%struct.anon.14 = type { i64, i32 }
%struct.anon.15 = type { ptr, i32 }

@ruby_vm_event_enabled_global_flags = external global i32, align 4

; Function Attrs: nounwind sspstrong uwtable
define hidden void @rb_iseq_init_trace(ptr noundef %0) #0 {
  %2 = alloca ptr, align 8
  store ptr %0, ptr %2, align 8, !tbaa !7
  %3 = load ptr, ptr %2, align 8, !tbaa !7
  %4 = getelementptr inbounds nuw %struct.rb_iseq_struct, ptr %3, i32 0, i32 3
  %5 = getelementptr inbounds nuw %struct.anon.15, ptr %4, i32 0, i32 1
  store i32 0, ptr %5, align 8, !tbaa !46
  %6 = load i32, ptr @ruby_vm_event_enabled_global_flags, align 4, !tbaa !56
  %7 = and i32 %6, 213887
  %8 = icmp ne i32 %7, 0
  br i1 %8, label %9, label %13

9:                                                ; preds = %1
  %10 = load ptr, ptr %2, align 8, !tbaa !7
  %11 = load i32, ptr @ruby_vm_event_enabled_global_flags, align 4, !tbaa !56
  %12 = and i32 %11, 213887
  call void @rb_iseq_trace_set(ptr noundef %10, i32 noundef %12)
  br label %13

13:                                               ; preds = %9, %1
  ret void
}