; Function Attrs: nounwind sspstrong uwtable
define hidden void @rb_iseq_init_trace(ptr noundef captures(none) initializes((32, 36)) %0) local_unnamed_addr #0 {
  %2 = getelementptr inbounds nuw i8, ptr %0, i64 32
  store i32 0, ptr %2, align 8, !tbaa !84
  %3 = load i32, ptr @ruby_vm_event_enabled_global_flags, align 4, !tbaa !136
  %4 = and i32 %3, 213887
  %.not = icmp eq i32 %4, 0
  br i1 %.not, label %6, label %5

5:                                                ; preds = %1
  tail call void @rb_iseq_trace_set(ptr noundef nonnull %0, i32 noundef %4)
  br label %6

6:                                                ; preds = %5, %1
  ret void
}